target datalayout = "e-m:e-p270:32:32-p271:32:32-p272:64:64-i64:64-i128:128-f80:128-n8:16:32:64-S128"
target triple = "x86_64-pc-linux-gnu"

%"struct.Luau::detail::Identifier" = type { %"class.std::__cxx11::basic_string", ptr }
%"class.std::__cxx11::basic_string" = type { %"struct.std::__cxx11::basic_string<char>::_Alloc_hider", i64, %union.anon }
%"struct.std::__cxx11::basic_string<char>::_Alloc_hider" = type { ptr }
%union.anon = type { i64, [8 x i8] }
%"struct.Luau::Location" = type { %"struct.Luau::Position", %"struct.Luau::Position" }
%"struct.Luau::Position" = type { i32, i32 }
%"class.Luau::AstNode.base" = type <{ ptr, i32, %"struct.Luau::Location" }>
%"class.std::optional" = type { %"struct.std::_Optional_base" }
%"struct.std::_Optional_base" = type { %"struct.std::_Optional_payload" }
%"struct.std::_Optional_payload" = type { %"struct.std::_Optional_payload.base", [7 x i8] }
%"struct.std::_Optional_payload.base" = type { %"struct.std::_Optional_payload_base.base" }
%"struct.std::_Optional_payload_base.base" = type <{ %"union.std::_Optional_payload_base<Luau::detail::Identifier>::_Storage", i8 }>
%"union.std::_Optional_payload_base<Luau::detail::Identifier>::_Storage" = type { %"struct.Luau::detail::Identifier" }
%"struct.Luau::AstArray" = type { ptr, i64 }
%"class.Luau::AstStat.base" = type { %"class.Luau::AstNode.base", i8 }
%"class.Luau::AstStatAssign" = type { %"class.Luau::AstStat.base", %"struct.Luau::AstArray", %"struct.Luau::AstArray" }
%"struct.std::_Optional_payload_base" = type <{ %"union.std::_Optional_payload_base<Luau::detail::Identifier>::_Storage", i8, [7 x i8] }>

; Function Attrs: mustprogress nounwind uwtable
define linkonce_odr dso_local void @_ZNSt22_Optional_payload_baseIN4Luau6detail10IdentifierEE8_StorageIS2_Lb0EEC2Ev(ptr noundef nonnull align 8 dereferenceable(40) %0) unnamed_addr #1 comdat align 2 {
  %2 = alloca ptr, align 8
  store ptr %0, ptr %2, align 8
  ret void
}

; Function Attrs: mustprogress nounwind uwtable
define linkonce_odr dso_local void @_ZNSt22_Optional_payload_baseIN4Luau6detail10IdentifierEEC2Ev(ptr noundef nonnull align 8 dereferenceable(41) %0) unnamed_addr #1 comdat align 2 {
  %2 = alloca ptr, align 8
  store ptr %0, ptr %2, align 8
  %3 = load ptr, ptr %2, align 8
  %4 = getelementptr inbounds %"struct.std::_Optional_payload_base", ptr %3, i32 0, i32 0
  call void @_ZNSt22_Optional_payload_baseIN4Luau6detail10IdentifierEE8_StorageIS2_Lb0EEC2Ev(ptr noundef nonnull align 8 dereferenceable(40) %4) #12
  %5 = getelementptr inbounds %"struct.std::_Optional_payload_base", ptr %3, i32 0, i32 1
  store i8 0, ptr %5, align 8
  ret void
}

; Function Attrs: mustprogress nounwind uwtable
define linkonce_odr dso_local void @_ZNSt17_Optional_payloadIN4Luau6detail10IdentifierELb1ELb0ELb0EEC2Ev(ptr noundef nonnull align 8 dereferenceable(41) %0) unnamed_addr #1 comdat align 2 {
  %2 = alloca ptr, align 8
  store ptr %0, ptr %2, align 8
  %3 = load ptr, ptr %2, align 8
  call void @_ZNSt22_Optional_payload_baseIN4Luau6detail10IdentifierEEC2Ev(ptr noundef nonnull align 8 dereferenceable(41) %3) #12
  ret void
}

; Function Attrs: mustprogress nounwind uwtable
define linkonce_odr dso_local void @_ZNSt17_Optional_payloadIN4Luau6detail10IdentifierELb0ELb0ELb0EEC2Ev(ptr noundef nonnull align 8 dereferenceable(41) %0) unnamed_addr #1 comdat align 2 {
  %2 = alloca ptr, align 8
  store ptr %0, ptr %2, align 8
  %3 = load ptr, ptr %2, align 8
  call void @_ZNSt17_Optional_payloadIN4Luau6detail10IdentifierELb1ELb0ELb0EEC2Ev(ptr noundef nonnull align 8 dereferenceable(41) %3) #12
  ret void
}

; Function Attrs: mustprogress nounwind uwtable
define linkonce_odr dso_local void @_ZNSt14_Optional_baseIN4Luau6detail10IdentifierELb0ELb0EEC2Ev(ptr noundef nonnull align 8 dereferenceable(48) %0) unnamed_addr #1 comdat align 2 {
  %2 = alloca ptr, align 8
  store ptr %0, ptr %2, align 8
  %3 = load ptr, ptr %2, align 8
  %4 = getelementptr inbounds %"struct.std::_Optional_base", ptr %3, i32 0, i32 0
  call void @_ZNSt17_Optional_payloadIN4Luau6detail10IdentifierELb0ELb0ELb0EEC2Ev(ptr noundef nonnull align 8 dereferenceable(41) %4) #12
  ret void
}

; Function Attrs: mustprogress nounwind uwtable
define linkonce_odr dso_local void @_ZNSt8optionalIN4Luau6detail10IdentifierEEC2ESt9nullopt_t(ptr noundef nonnull align 8 dereferenceable(48) %0) unnamed_addr #1 comdat align 2 {
  %2 = alloca ptr, align 8
  store ptr %0, ptr %2, align 8
  %3 = load ptr, ptr %2, align 8
  call void @_ZNSt14_Optional_baseIN4Luau6detail10IdentifierELb0ELb0EEC2Ev(ptr noundef nonnull align 8 dereferenceable(48) %3) #12
  ret void
}

; Function Attrs: mustprogress uwtable
define dso_local void @_ZN4Luau6detail6mkNameERKNS_13AstStatAssignE(ptr dead_on_unwind noalias writable sret(%"class.std::optional") align 8 %0, ptr noundef nonnull align 8 dereferenceable(64) %1) #2 {
  %3 = alloca ptr, align 8
  %4 = alloca ptr, align 8
  store ptr %0, ptr %3, align 8
  store ptr %1, ptr %4, align 8
  %5 = load ptr, ptr %4, align 8
  %6 = getelementptr inbounds %"class.Luau::AstStatAssign", ptr %5, i32 0, i32 1
  %7 = getelementptr inbounds %"struct.Luau::AstArray", ptr %6, i32 0, i32 1
  %8 = load i64, ptr %7, align 8
  %9 = icmp ne i64 %8, 1
  br i1 %9, label %10, label %11

10:                                               ; preds = %2
  call void @_ZNSt8optionalIN4Luau6detail10IdentifierEEC2ESt9nullopt_t(ptr noundef nonnull align 8 dereferenceable(48) %0) #12
  br label %18

11:                                               ; preds = %2
  %12 = load ptr, ptr %4, align 8
  %13 = getelementptr inbounds %"class.Luau::AstStatAssign", ptr %12, i32 0, i32 1
  %14 = getelementptr inbounds %"struct.Luau::AstArray", ptr %13, i32 0, i32 0
  %15 = load ptr, ptr %14, align 8
  %16 = getelementptr inbounds ptr, ptr %15, i64 0
  %17 = load ptr, ptr %16, align 8
  call void @_ZN4Luau6detail6mkNameERKNS_7AstExprE(ptr dead_on_unwind writable sret(%"class.std::optional") align 8 %0, ptr noundef nonnull align 8 dereferenceable(28) %17)
  br label %18

18:                                               ; preds = %11, %10
  ret void
}