; Function Attrs: mustprogress uwtable
define dso_local void @_ZN4Luau6detail6mkNameERKNS_13AstStatAssignE(ptr dead_on_unwind noalias writable sret(%"class.std::optional") align 8 %0, ptr nocapture noundef nonnull readonly align 8 dereferenceable(64) %1) local_unnamed_addr #2 {
  %3 = getelementptr inbounds i8, ptr %1, i64 40
  %4 = load i64, ptr %3, align 8
  %.not = icmp eq i64 %4, 1
  br i1 %.not, label %7, label %5

5:                                                ; preds = %2
  %6 = getelementptr inbounds i8, ptr %0, i64 40
  store i8 0, ptr %6, align 8
  br label %11

7:                                                ; preds = %2
  %8 = getelementptr inbounds i8, ptr %1, i64 32
  %9 = load ptr, ptr %8, align 8
  %10 = load ptr, ptr %9, align 8
  tail call void @_ZN4Luau6detail6mkNameERKNS_7AstExprE(ptr dead_on_unwind writable sret(%"class.std::optional") align 8 %0, ptr noundef nonnull align 8 dereferenceable(28) %10)
  br label %11

11:                                               ; preds = %7, %5
  ret void
}